target datalayout = "e-m:e-p270:32:32-p271:32:32-p272:64:64-i64:64-i128:128-f80:128-n8:16:32:64-S128"
target triple = "x86_64-pc-linux-gnu"

@_ZTIN19OpenColorIO_v2_5dev9ExceptionE = external constant ptr
@.str.4 = private unnamed_addr constant [29 x i8] c"Matrix: array content issue.\00", align 1
@.str.5 = private unnamed_addr constant [32 x i8] c"Matrix: dimensions must be 4x4.\00", align 1

; Function Attrs: mustprogress uwtable
define hidden void @_ZNK19OpenColorIO_v2_5dev12MatrixOpData11MatrixArray8validateEv(ptr noundef nonnull align 8 dereferenceable(48) %0) unnamed_addr #4 align 2 personality ptr @__gxx_personality_v0 {
  %2 = alloca ptr, align 8
  %3 = alloca ptr, align 8
  %4 = alloca i32, align 4
  store ptr %0, ptr %2, align 8, !tbaa !16
  %5 = load ptr, ptr %2, align 8
  call void @_ZNK19OpenColorIO_v2_5dev6ArrayTIdE8validateEv(ptr noundef nonnull align 8 dereferenceable(48) %5)
  %6 = load ptr, ptr %5, align 8, !tbaa !34
  %7 = getelementptr inbounds ptr, ptr %6, i64 4
  %8 = load ptr, ptr %7, align 8
  %9 = call noundef i64 %8(ptr noundef nonnull align 8 dereferenceable(48) %5)
  %10 = icmp eq i64 %9, 3
  br i1 %10, label %11, label %12

11:                                               ; preds = %1
  call void @_ZN19OpenColorIO_v2_5dev12MatrixOpData11MatrixArray18expandFrom3x3To4x4Ev(ptr noundef nonnull align 8 dereferenceable(48) %5)
  br label %26

12:                                               ; preds = %1
  %13 = load ptr, ptr %5, align 8, !tbaa !34
  %14 = getelementptr inbounds ptr, ptr %13, i64 4
  %15 = load ptr, ptr %14, align 8
  %16 = call noundef i64 %15(ptr noundef nonnull align 8 dereferenceable(48) %5)
  %17 = icmp ne i64 %16, 4
  br i1 %17, label %18, label %25

18:                                               ; preds = %12
  %19 = call ptr @__cxa_allocate_exception(i64 16) #3
  invoke void @_ZN19OpenColorIO_v2_5dev9ExceptionC1EPKc(ptr noundef nonnull align 8 dereferenceable(16) %19, ptr noundef @.str.4)
          to label %20 unwind label %21

20:                                               ; preds = %18
  call void @__cxa_throw(ptr %19, ptr @_ZTIN19OpenColorIO_v2_5dev9ExceptionE, ptr @_ZN19OpenColorIO_v2_5dev9ExceptionD1Ev) #23
  unreachable

21:                                               ; preds = %18
  %22 = landingpad { ptr, i32 }
          cleanup
  %23 = extractvalue { ptr, i32 } %22, 0
  store ptr %23, ptr %3, align 8
  %24 = extractvalue { ptr, i32 } %22, 1
  store i32 %24, ptr %4, align 4
  call void @__cxa_free_exception(ptr %19) #3
  br label %40

25:                                               ; preds = %12
  br label %26

26:                                               ; preds = %25, %11
  %27 = load ptr, ptr %5, align 8, !tbaa !34
  %28 = getelementptr inbounds ptr, ptr %27, i64 5
  %29 = load ptr, ptr %28, align 8
  %30 = call noundef i64 %29(ptr noundef nonnull align 8 dereferenceable(48) %5)
  %31 = icmp ne i64 %30, 4
  br i1 %31, label %32, label %39

32:                                               ; preds = %26
  %33 = call ptr @__cxa_allocate_exception(i64 16) #3
  invoke void @_ZN19OpenColorIO_v2_5dev9ExceptionC1EPKc(ptr noundef nonnull align 8 dereferenceable(16) %33, ptr noundef @.str.5)
          to label %34 unwind label %35

34:                                               ; preds = %32
  call void @__cxa_throw(ptr %33, ptr @_ZTIN19OpenColorIO_v2_5dev9ExceptionE, ptr @_ZN19OpenColorIO_v2_5dev9ExceptionD1Ev) #23
  unreachable

35:                                               ; preds = %32
  %36 = landingpad { ptr, i32 }
          cleanup
  %37 = extractvalue { ptr, i32 } %36, 0
  store ptr %37, ptr %3, align 8
  %38 = extractvalue { ptr, i32 } %36, 1
  store i32 %38, ptr %4, align 4
  call void @__cxa_free_exception(ptr %33) #3
  br label %40

39:                                               ; preds = %26
  ret void

40:                                               ; preds = %35, %21
  %41 = load ptr, ptr %3, align 8
  %42 = load i32, ptr %4, align 4
  %43 = insertvalue { ptr, i32 } poison, ptr %41, 0
  %44 = insertvalue { ptr, i32 } %43, i32 %42, 1
  resume { ptr, i32 } %44
}