; Function Attrs: mustprogress uwtable
define hidden void @_ZNK19OpenColorIO_v2_5dev12MatrixOpData11MatrixArray8validateEv(ptr noundef nonnull align 8 dereferenceable(48) %0) unnamed_addr #3 align 2 personality ptr @__gxx_personality_v0 {
  tail call void @_ZNK19OpenColorIO_v2_5dev6ArrayTIdE8validateEv(ptr noundef nonnull align 8 dereferenceable(48) %0)
  %2 = load ptr, ptr %0, align 8, !tbaa !15
  %3 = getelementptr inbounds nuw i8, ptr %2, i64 32
  %4 = load ptr, ptr %3, align 8
  %5 = tail call noundef i64 %4(ptr noundef nonnull align 8 dereferenceable(48) %0)
  %6 = icmp eq i64 %5, 3
  br i1 %6, label %7, label %8

7:                                                ; preds = %1
  tail call void @_ZN19OpenColorIO_v2_5dev12MatrixOpData11MatrixArray18expandFrom3x3To4x4Ev(ptr noundef nonnull align 8 dereferenceable(48) %0)
  br label %18

8:                                                ; preds = %1
  %9 = load ptr, ptr %0, align 8, !tbaa !15
  %10 = getelementptr inbounds nuw i8, ptr %9, i64 32
  %11 = load ptr, ptr %10, align 8
  %12 = tail call noundef i64 %11(ptr noundef nonnull align 8 dereferenceable(48) %0)
  %.not = icmp eq i64 %12, 4
  br i1 %.not, label %18, label %13

13:                                               ; preds = %8
  %14 = tail call ptr @__cxa_allocate_exception(i64 16) #34
  invoke void @_ZN19OpenColorIO_v2_5dev9ExceptionC1EPKc(ptr noundef nonnull align 8 dereferenceable(16) %14, ptr noundef nonnull @.str.4)
          to label %15 unwind label %16

15:                                               ; preds = %13
  tail call void @__cxa_throw(ptr nonnull %14, ptr nonnull @_ZTIN19OpenColorIO_v2_5dev9ExceptionE, ptr nonnull @_ZN19OpenColorIO_v2_5dev9ExceptionD1Ev) #35
  unreachable

16:                                               ; preds = %13
  %17 = landingpad { ptr, i32 }
          cleanup
  br label %29

18:                                               ; preds = %8, %7
  %19 = load ptr, ptr %0, align 8, !tbaa !15
  %20 = getelementptr inbounds nuw i8, ptr %19, i64 40
  %21 = load ptr, ptr %20, align 8
  %22 = tail call noundef i64 %21(ptr noundef nonnull align 8 dereferenceable(48) %0)
  %.not3 = icmp eq i64 %22, 4
  br i1 %.not3, label %28, label %23

23:                                               ; preds = %18
  %24 = tail call ptr @__cxa_allocate_exception(i64 16) #34
  invoke void @_ZN19OpenColorIO_v2_5dev9ExceptionC1EPKc(ptr noundef nonnull align 8 dereferenceable(16) %24, ptr noundef nonnull @.str.5)
          to label %25 unwind label %26

25:                                               ; preds = %23
  tail call void @__cxa_throw(ptr nonnull %24, ptr nonnull @_ZTIN19OpenColorIO_v2_5dev9ExceptionE, ptr nonnull @_ZN19OpenColorIO_v2_5dev9ExceptionD1Ev) #35
  unreachable

26:                                               ; preds = %23
  %27 = landingpad { ptr, i32 }
          cleanup
  br label %29

28:                                               ; preds = %18
  ret void

29:                                               ; preds = %26, %16
  %.sink = phi ptr [ %24, %26 ], [ %14, %16 ]
  %.pn = phi { ptr, i32 } [ %27, %26 ], [ %17, %16 ]
  tail call void @__cxa_free_exception(ptr nonnull %.sink) #34
  resume { ptr, i32 } %.pn
}